; Function Attrs: nounwind uwtable
define i32 @dissect_dcom_HRESULT_item(ptr noundef %0, i32 noundef %1, ptr noundef %2, ptr noundef %3, ptr noundef %4, ptr noundef %5, ptr noundef writeonly %6, i32 noundef %7, ptr noundef writeonly captures(none) %8) local_unnamed_addr #1 {
  %10 = alloca i32, align 4
  %11 = call i32 @dissect_ndr_uint32(ptr noundef %0, i32 noundef %1, ptr noundef %2, ptr noundef null, ptr noundef %4, ptr noundef %5, i32 noundef %7, ptr noundef nonnull %10) #11
  %.not = icmp eq ptr %3, null
  br i1 %.not, label %19, label %12

12:                                               ; preds = %9
  %13 = add i32 %11, -4
  %14 = load i8, ptr %5, align 1
  %15 = and i8 %14, 16
  %16 = zext nneg i8 %15 to i32
  %17 = shl nuw i32 %16, 27
  %18 = call ptr @proto_tree_add_item(ptr noundef nonnull %3, i32 noundef %7, ptr noundef %0, i32 noundef %13, i32 noundef 4, i32 noundef %17) #11
  store ptr %18, ptr %8, align 8
  br label %19

19:                                               ; preds = %12, %9
  %.not17 = icmp eq ptr %6, null
  br i1 %.not17, label %22, label %20

20:                                               ; preds = %19
  %21 = load i32, ptr %10, align 4
  store i32 %21, ptr %6, align 4
  br label %22

22:                                               ; preds = %20, %19
  ret i32 %11
}